target datalayout = "e-m:e-p270:32:32-p271:32:32-p272:64:64-i64:64-i128:128-f80:128-n8:16:32:64-S128"
target triple = "x86_64-pc-linux-gnu"

%struct.pointf_s = type { double, double }
%struct.Ppoly_t = type { ptr, i64 }

; Function Attrs: nounwind uwtable
define internal { double, double } @tweakEnd(ptr %0, i64 %1, i64 noundef %2, double %3, double %4) #0 {
  %6 = alloca %struct.pointf_s, align 8
  %7 = alloca %struct.Ppoly_t, align 8
  %8 = alloca %struct.pointf_s, align 8
  %9 = alloca i64, align 8
  %10 = alloca %struct.pointf_s, align 8
  %11 = alloca %struct.pointf_s, align 8
  %12 = alloca %struct.pointf_s, align 8
  %13 = alloca double, align 8
  %14 = getelementptr inbounds nuw { ptr, i64 }, ptr %7, i32 0, i32 0
  store ptr %0, ptr %14, align 8
  %15 = getelementptr inbounds nuw { ptr, i64 }, ptr %7, i32 0, i32 1
  store i64 %1, ptr %15, align 8
  %16 = getelementptr inbounds nuw { double, double }, ptr %8, i32 0, i32 0
  store double %3, ptr %16, align 8
  %17 = getelementptr inbounds nuw { double, double }, ptr %8, i32 0, i32 1
  store double %4, ptr %17, align 8
  store i64 %2, ptr %9, align 8, !tbaa !19
  call void @llvm.lifetime.start.p0(i64 16, ptr %10) #12
  call void @llvm.lifetime.start.p0(i64 16, ptr %11) #12
  %18 = getelementptr inbounds nuw %struct.Ppoly_t, ptr %7, i32 0, i32 0
  %19 = load ptr, ptr %18, align 8, !tbaa !51
  %20 = load i64, ptr %9, align 8, !tbaa !19
  %21 = getelementptr inbounds nuw %struct.pointf_s, ptr %19, i64 %20
  call void @llvm.memcpy.p0.p0.i64(ptr align 8 %6, ptr align 8 %21, i64 16, i1 false), !tbaa.struct !38
  %22 = getelementptr inbounds nuw %struct.Ppoly_t, ptr %7, i32 0, i32 0
  %23 = load ptr, ptr %22, align 8, !tbaa !51
  %24 = load i64, ptr %9, align 8, !tbaa !19
  %25 = add i64 %24, 1
  %26 = getelementptr inbounds nuw %struct.Ppoly_t, ptr %7, i32 0, i32 1
  %27 = load i64, ptr %26, align 8, !tbaa !49
  %28 = urem i64 %25, %27
  %29 = getelementptr inbounds nuw %struct.pointf_s, ptr %23, i64 %28
  call void @llvm.memcpy.p0.p0.i64(ptr align 8 %11, ptr align 8 %29, i64 16, i1 false), !tbaa.struct !38
  %30 = load i64, ptr %9, align 8, !tbaa !19
  %31 = icmp eq i64 %30, 0
  br i1 %31, label %32, label %39

32:                                               ; preds = %5
  %33 = getelementptr inbounds nuw %struct.Ppoly_t, ptr %7, i32 0, i32 0
  %34 = load ptr, ptr %33, align 8, !tbaa !51
  %35 = getelementptr inbounds nuw %struct.Ppoly_t, ptr %7, i32 0, i32 1
  %36 = load i64, ptr %35, align 8, !tbaa !49
  %37 = sub i64 %36, 1
  %38 = getelementptr inbounds nuw %struct.pointf_s, ptr %34, i64 %37
  call void @llvm.memcpy.p0.p0.i64(ptr align 8 %10, ptr align 8 %38, i64 16, i1 false), !tbaa.struct !38
  br label %45

39:                                               ; preds = %5
  %40 = getelementptr inbounds nuw %struct.Ppoly_t, ptr %7, i32 0, i32 0
  %41 = load ptr, ptr %40, align 8, !tbaa !51
  %42 = load i64, ptr %9, align 8, !tbaa !19
  %43 = sub i64 %42, 1
  %44 = getelementptr inbounds nuw %struct.pointf_s, ptr %41, i64 %43
  call void @llvm.memcpy.p0.p0.i64(ptr align 8 %10, ptr align 8 %44, i64 16, i1 false), !tbaa.struct !38
  br label %45

45:                                               ; preds = %39, %32
  %46 = getelementptr inbounds nuw %struct.pointf_s, ptr %8, i32 0, i32 0
  %47 = load double, ptr %46, align 8, !tbaa !41
  %48 = getelementptr inbounds nuw %struct.pointf_s, ptr %11, i32 0, i32 0
  %49 = load double, ptr %48, align 8, !tbaa !41
  %50 = fcmp oeq double %47, %49
  br i1 %50, label %51, label %57

51:                                               ; preds = %45
  %52 = getelementptr inbounds nuw %struct.pointf_s, ptr %8, i32 0, i32 1
  %53 = load double, ptr %52, align 8, !tbaa !43
  %54 = getelementptr inbounds nuw %struct.pointf_s, ptr %11, i32 0, i32 1
  %55 = load double, ptr %54, align 8, !tbaa !43
  %56 = fcmp oeq double %53, %55
  br i1 %56, label %69, label %57

57:                                               ; preds = %51, %45
  %58 = getelementptr inbounds nuw %struct.pointf_s, ptr %8, i32 0, i32 0
  %59 = load double, ptr %58, align 8, !tbaa !41
  %60 = getelementptr inbounds nuw %struct.pointf_s, ptr %10, i32 0, i32 0
  %61 = load double, ptr %60, align 8, !tbaa !41
  %62 = fcmp oeq double %59, %61
  br i1 %62, label %63, label %111

63:                                               ; preds = %57
  %64 = getelementptr inbounds nuw %struct.pointf_s, ptr %8, i32 0, i32 1
  %65 = load double, ptr %64, align 8, !tbaa !43
  %66 = getelementptr inbounds nuw %struct.pointf_s, ptr %10, i32 0, i32 1
  %67 = load double, ptr %66, align 8, !tbaa !43
  %68 = fcmp oeq double %65, %67
  br i1 %68, label %69, label %111

69:                                               ; preds = %63, %51
  call void @llvm.lifetime.start.p0(i64 16, ptr %12) #12
  %70 = getelementptr inbounds nuw %struct.pointf_s, ptr %11, i32 0, i32 0
  %71 = load double, ptr %70, align 8, !tbaa !41
  %72 = getelementptr inbounds nuw %struct.pointf_s, ptr %10, i32 0, i32 0
  %73 = load double, ptr %72, align 8, !tbaa !41
  %74 = fadd double %71, %73
  %75 = fdiv double %74, 2.000000e+00
  %76 = getelementptr inbounds nuw %struct.pointf_s, ptr %6, i32 0, i32 0
  %77 = load double, ptr %76, align 8, !tbaa !41
  %78 = fsub double %75, %77
  %79 = getelementptr inbounds nuw %struct.pointf_s, ptr %12, i32 0, i32 0
  store double %78, ptr %79, align 8, !tbaa !41
  %80 = getelementptr inbounds nuw %struct.pointf_s, ptr %11, i32 0, i32 1
  %81 = load double, ptr %80, align 8, !tbaa !43
  %82 = getelementptr inbounds nuw %struct.pointf_s, ptr %10, i32 0, i32 1
  %83 = load double, ptr %82, align 8, !tbaa !43
  %84 = fadd double %81, %83
  %85 = fdiv double %84, 2.000000e+00
  %86 = getelementptr inbounds nuw %struct.pointf_s, ptr %6, i32 0, i32 1
  %87 = load double, ptr %86, align 8, !tbaa !43
  %88 = fsub double %85, %87
  %89 = getelementptr inbounds nuw %struct.pointf_s, ptr %12, i32 0, i32 1
  store double %88, ptr %89, align 8, !tbaa !43
  call void @llvm.lifetime.start.p0(i64 8, ptr %13) #12
  %90 = getelementptr inbounds nuw %struct.pointf_s, ptr %12, i32 0, i32 0
  %91 = load double, ptr %90, align 8, !tbaa !41
  %92 = getelementptr inbounds nuw %struct.pointf_s, ptr %12, i32 0, i32 1
  %93 = load double, ptr %92, align 8, !tbaa !43
  %94 = call double @hypot(double noundef %91, double noundef %93) #12, !tbaa !33
  store double %94, ptr %13, align 8, !tbaa !36
  %95 = getelementptr inbounds nuw %struct.pointf_s, ptr %12, i32 0, i32 0
  %96 = load double, ptr %95, align 8, !tbaa !41
  %97 = fmul double 1.000000e-01, %96
  %98 = load double, ptr %13, align 8, !tbaa !36
  %99 = fdiv double %97, %98
  %100 = getelementptr inbounds nuw %struct.pointf_s, ptr %6, i32 0, i32 0
  %101 = load double, ptr %100, align 8, !tbaa !41
  %102 = fadd double %101, %99
  store double %102, ptr %100, align 8, !tbaa !41
  %103 = getelementptr inbounds nuw %struct.pointf_s, ptr %12, i32 0, i32 1
  %104 = load double, ptr %103, align 8, !tbaa !43
  %105 = fmul double 1.000000e-01, %104
  %106 = load double, ptr %13, align 8, !tbaa !36
  %107 = fdiv double %105, %106
  %108 = getelementptr inbounds nuw %struct.pointf_s, ptr %6, i32 0, i32 1
  %109 = load double, ptr %108, align 8, !tbaa !43
  %110 = fadd double %109, %107
  store double %110, ptr %108, align 8, !tbaa !43
  call void @llvm.lifetime.end.p0(i64 8, ptr %13) #12
  call void @llvm.lifetime.end.p0(i64 16, ptr %12) #12
  br label %111

111:                                              ; preds = %69, %63, %57
  call void @llvm.lifetime.end.p0(i64 16, ptr %11) #12
  call void @llvm.lifetime.end.p0(i64 16, ptr %10) #12
  %112 = load { double, double }, ptr %6, align 8
  ret { double, double } %112
}

; Function Attrs: nounwind uwtable
define internal void @tweakPath(ptr %0, i64 %1, i64 noundef %2, ptr %3, i64 %4) #0 {
  %6 = alloca %struct.Ppoly_t, align 8
  %7 = alloca %struct.Ppoly_t, align 8
  %8 = alloca i64, align 8
  %9 = alloca %struct.pointf_s, align 8
  %10 = alloca %struct.pointf_s, align 8
  %11 = getelementptr inbounds nuw { ptr, i64 }, ptr %6, i32 0, i32 0
  store ptr %0, ptr %11, align 8
  %12 = getelementptr inbounds nuw { ptr, i64 }, ptr %6, i32 0, i32 1
  store i64 %1, ptr %12, align 8
  %13 = getelementptr inbounds nuw { ptr, i64 }, ptr %7, i32 0, i32 0
  store ptr %3, ptr %13, align 8
  %14 = getelementptr inbounds nuw { ptr, i64 }, ptr %7, i32 0, i32 1
  store i64 %4, ptr %14, align 8
  store i64 %2, ptr %8, align 8, !tbaa !19
  %15 = getelementptr inbounds nuw %struct.Ppoly_t, ptr %7, i32 0, i32 0
  %16 = load ptr, ptr %15, align 8, !tbaa !51
  %17 = getelementptr inbounds %struct.pointf_s, ptr %16, i64 0
  call void @llvm.lifetime.start.p0(i64 16, ptr %9) #12
  %18 = getelementptr inbounds nuw %struct.Ppoly_t, ptr %7, i32 0, i32 0
  %19 = load ptr, ptr %18, align 8, !tbaa !51
  %20 = getelementptr inbounds %struct.pointf_s, ptr %19, i64 1
  %21 = getelementptr inbounds nuw { ptr, i64 }, ptr %6, i32 0, i32 0
  %22 = load ptr, ptr %21, align 8
  %23 = getelementptr inbounds nuw { ptr, i64 }, ptr %6, i32 0, i32 1
  %24 = load i64, ptr %23, align 8
  %25 = getelementptr inbounds nuw { double, double }, ptr %20, i32 0, i32 0
  %26 = load double, ptr %25, align 8
  %27 = getelementptr inbounds nuw { double, double }, ptr %20, i32 0, i32 1
  %28 = load double, ptr %27, align 8
  %29 = call { double, double } @tweakEnd(ptr %22, i64 %24, i64 noundef 0, double %26, double %28)
  %30 = getelementptr inbounds nuw { double, double }, ptr %9, i32 0, i32 0
  %31 = extractvalue { double, double } %29, 0
  store double %31, ptr %30, align 8
  %32 = getelementptr inbounds nuw { double, double }, ptr %9, i32 0, i32 1
  %33 = extractvalue { double, double } %29, 1
  store double %33, ptr %32, align 8
  call void @llvm.memcpy.p0.p0.i64(ptr align 8 %17, ptr align 8 %9, i64 16, i1 false), !tbaa.struct !38
  call void @llvm.lifetime.end.p0(i64 16, ptr %9) #12
  %34 = getelementptr inbounds nuw %struct.Ppoly_t, ptr %7, i32 0, i32 0
  %35 = load ptr, ptr %34, align 8, !tbaa !51
  %36 = getelementptr inbounds nuw %struct.Ppoly_t, ptr %7, i32 0, i32 1
  %37 = load i64, ptr %36, align 8, !tbaa !49
  %38 = sub i64 %37, 1
  %39 = getelementptr inbounds nuw %struct.pointf_s, ptr %35, i64 %38
  call void @llvm.lifetime.start.p0(i64 16, ptr %10) #12
  %40 = load i64, ptr %8, align 8, !tbaa !19
  %41 = getelementptr inbounds nuw %struct.Ppoly_t, ptr %7, i32 0, i32 0
  %42 = load ptr, ptr %41, align 8, !tbaa !51
  %43 = getelementptr inbounds nuw %struct.Ppoly_t, ptr %7, i32 0, i32 1
  %44 = load i64, ptr %43, align 8, !tbaa !49
  %45 = sub i64 %44, 2
  %46 = getelementptr inbounds nuw %struct.pointf_s, ptr %42, i64 %45
  %47 = getelementptr inbounds nuw { ptr, i64 }, ptr %6, i32 0, i32 0
  %48 = load ptr, ptr %47, align 8
  %49 = getelementptr inbounds nuw { ptr, i64 }, ptr %6, i32 0, i32 1
  %50 = load i64, ptr %49, align 8
  %51 = getelementptr inbounds nuw { double, double }, ptr %46, i32 0, i32 0
  %52 = load double, ptr %51, align 8
  %53 = getelementptr inbounds nuw { double, double }, ptr %46, i32 0, i32 1
  %54 = load double, ptr %53, align 8
  %55 = call { double, double } @tweakEnd(ptr %48, i64 %50, i64 noundef %40, double %52, double %54)
  %56 = getelementptr inbounds nuw { double, double }, ptr %10, i32 0, i32 0
  %57 = extractvalue { double, double } %55, 0
  store double %57, ptr %56, align 8
  %58 = getelementptr inbounds nuw { double, double }, ptr %10, i32 0, i32 1
  %59 = extractvalue { double, double } %55, 1
  store double %59, ptr %58, align 8
  call void @llvm.memcpy.p0.p0.i64(ptr align 8 %39, ptr align 8 %10, i64 16, i1 false), !tbaa.struct !38
  call void @llvm.lifetime.end.p0(i64 16, ptr %10) #12
  ret void
}