; Function Attrs: mustprogress nofree nounwind willreturn memory(write, argmem: readwrite) uwtable
define internal fastcc void @tweakPath(ptr readonly captures(none) %0, i64 %1, i64 noundef %2, ptr captures(none) initializes((0, 16)) %3, i64 %4) unnamed_addr #14 {
  %6 = getelementptr inbounds nuw i8, ptr %3, i64 16
  %7 = load double, ptr %6, align 8
  %8 = getelementptr inbounds nuw i8, ptr %3, i64 24
  %9 = load double, ptr %8, align 8
  %.sroa.026.0.copyload.i = load double, ptr %0, align 8, !tbaa !38
  %.sroa.528.0..sroa_idx.i = getelementptr inbounds nuw i8, ptr %0, i64 8
  %.sroa.528.0.copyload.i = load double, ptr %.sroa.528.0..sroa_idx.i, align 8, !tbaa !38
  %10 = icmp ne i64 %1, 1
  %11 = zext i1 %10 to i64
  %12 = getelementptr inbounds nuw %struct.pointf_s, ptr %0, i64 %11
  %.sroa.04.0.copyload.i = load double, ptr %12, align 8, !tbaa !38
  %.sroa.56.0..sroa_idx.i = getelementptr inbounds nuw i8, ptr %12, i64 8
  %.sroa.56.0.copyload.i = load double, ptr %.sroa.56.0..sroa_idx.i, align 8, !tbaa !38
  %.pn.i = getelementptr %struct.pointf_s, ptr %0, i64 %1
  %.sroa.6.0.in.i = getelementptr i8, ptr %.pn.i, i64 -8
  %.sroa.6.0.i = load double, ptr %.sroa.6.0.in.i, align 8, !tbaa !38
  %.sroa.08.0.in.i = getelementptr i8, ptr %.pn.i, i64 -16
  %.sroa.08.0.i = load double, ptr %.sroa.08.0.in.i, align 8, !tbaa !38
  %13 = fcmp oeq double %7, %.sroa.04.0.copyload.i
  %14 = fcmp oeq double %9, %.sroa.56.0.copyload.i
  %or.cond.i = select i1 %13, i1 %14, i1 false
  br i1 %or.cond.i, label %18, label %15

15:                                               ; preds = %5
  %16 = fcmp oeq double %7, %.sroa.08.0.i
  %17 = fcmp oeq double %9, %.sroa.6.0.i
  %or.cond31.i = select i1 %16, i1 %17, i1 false
  br i1 %or.cond31.i, label %18, label %tweakEnd.exit

18:                                               ; preds = %15, %5
  %19 = fadd double %.sroa.04.0.copyload.i, %.sroa.08.0.i
  %20 = fmul double %19, 5.000000e-01
  %21 = fsub double %20, %.sroa.026.0.copyload.i
  %22 = fadd double %.sroa.56.0.copyload.i, %.sroa.6.0.i
  %23 = fmul double %22, 5.000000e-01
  %24 = fsub double %23, %.sroa.528.0.copyload.i
  %25 = tail call double @hypot(double noundef %21, double noundef %24) #18, !tbaa !42
  %26 = fmul double %21, 1.000000e-01
  %27 = fdiv double %26, %25
  %28 = fadd double %.sroa.026.0.copyload.i, %27
  %29 = fmul double %24, 1.000000e-01
  %30 = fdiv double %29, %25
  %31 = fadd double %.sroa.528.0.copyload.i, %30
  br label %tweakEnd.exit

tweakEnd.exit:                                    ; preds = %15, %18
  %.sroa.026.0.i = phi double [ %28, %18 ], [ %.sroa.026.0.copyload.i, %15 ]
  %.sroa.528.0.i = phi double [ %31, %18 ], [ %.sroa.528.0.copyload.i, %15 ]
  store double %.sroa.026.0.i, ptr %3, align 8, !tbaa !38
  %.sroa.42.0..sroa_idx = getelementptr inbounds nuw i8, ptr %3, i64 8
  store double %.sroa.528.0.i, ptr %.sroa.42.0..sroa_idx, align 8, !tbaa !38
  %32 = getelementptr %struct.pointf_s, ptr %3, i64 %4
  %33 = getelementptr i8, ptr %32, i64 -32
  %34 = load double, ptr %33, align 8
  %35 = getelementptr i8, ptr %32, i64 -24
  %36 = load double, ptr %35, align 8
  %37 = getelementptr inbounds nuw %struct.pointf_s, ptr %0, i64 %2
  %.sroa.026.0.copyload.i11 = load double, ptr %37, align 8, !tbaa !38
  %.sroa.528.0..sroa_idx.i12 = getelementptr inbounds nuw i8, ptr %37, i64 8
  %.sroa.528.0.copyload.i13 = load double, ptr %.sroa.528.0..sroa_idx.i12, align 8, !tbaa !38
  %38 = add i64 %2, 1
  %39 = urem i64 %38, %1
  %40 = getelementptr inbounds nuw %struct.pointf_s, ptr %0, i64 %39
  %.sroa.04.0.copyload.i14 = load double, ptr %40, align 8, !tbaa !38
  %.sroa.56.0..sroa_idx.i15 = getelementptr inbounds nuw i8, ptr %40, i64 8
  %.sroa.56.0.copyload.i16 = load double, ptr %.sroa.56.0..sroa_idx.i15, align 8, !tbaa !38
  %41 = icmp eq i64 %2, 0
  %..i = select i1 %41, i64 %1, i64 %2
  %.pn.i17 = getelementptr %struct.pointf_s, ptr %0, i64 %..i
  %.sroa.6.0.in.i18 = getelementptr i8, ptr %.pn.i17, i64 -8
  %.sroa.6.0.i19 = load double, ptr %.sroa.6.0.in.i18, align 8, !tbaa !38
  %.sroa.08.0.in.i20 = getelementptr i8, ptr %.pn.i17, i64 -16
  %.sroa.08.0.i21 = load double, ptr %.sroa.08.0.in.i20, align 8, !tbaa !38
  %42 = fcmp oeq double %34, %.sroa.04.0.copyload.i14
  %43 = fcmp oeq double %36, %.sroa.56.0.copyload.i16
  %or.cond.i22 = select i1 %42, i1 %43, i1 false
  br i1 %or.cond.i22, label %47, label %44

44:                                               ; preds = %tweakEnd.exit
  %45 = fcmp oeq double %34, %.sroa.08.0.i21
  %46 = fcmp oeq double %36, %.sroa.6.0.i19
  %or.cond31.i23 = select i1 %45, i1 %46, i1 false
  br i1 %or.cond31.i23, label %47, label %tweakEnd.exit28

47:                                               ; preds = %44, %tweakEnd.exit
  %48 = fadd double %.sroa.04.0.copyload.i14, %.sroa.08.0.i21
  %49 = fmul double %48, 5.000000e-01
  %50 = fsub double %49, %.sroa.026.0.copyload.i11
  %51 = fadd double %.sroa.56.0.copyload.i16, %.sroa.6.0.i19
  %52 = fmul double %51, 5.000000e-01
  %53 = fsub double %52, %.sroa.528.0.copyload.i13
  %54 = tail call double @hypot(double noundef %50, double noundef %53) #18, !tbaa !42
  %55 = fmul double %50, 1.000000e-01
  %56 = fdiv double %55, %54
  %57 = fadd double %.sroa.026.0.copyload.i11, %56
  %58 = fmul double %53, 1.000000e-01
  %59 = fdiv double %58, %54
  %60 = fadd double %.sroa.528.0.copyload.i13, %59
  br label %tweakEnd.exit28

tweakEnd.exit28:                                  ; preds = %44, %47
  %.sroa.026.0.i24 = phi double [ %57, %47 ], [ %.sroa.026.0.copyload.i11, %44 ]
  %.sroa.528.0.i25 = phi double [ %60, %47 ], [ %.sroa.528.0.copyload.i13, %44 ]
  %61 = getelementptr i8, ptr %32, i64 -16
  store double %.sroa.026.0.i24, ptr %61, align 8, !tbaa !38
  %.sroa.4.0..sroa_idx = getelementptr i8, ptr %32, i64 -8
  store double %.sroa.528.0.i25, ptr %.sroa.4.0..sroa_idx, align 8, !tbaa !38
  ret void
}